target datalayout = "e-m:e-p270:32:32-p271:32:32-p272:64:64-i64:64-i128:128-f80:128-n8:16:32:64-S128"
target triple = "x86_64-pc-linux-gnu"

%struct.__va_list_tag = type { i32, i32, ptr, ptr }

@.str.22 = private unnamed_addr constant [12 x i8] c"KIN_SUCCESS\00", align 1
@.str.23 = private unnamed_addr constant [17 x i8] c"KIN_SYSFUNC_FAIL\00", align 1
@.str.24 = private unnamed_addr constant [22 x i8] c"KIN_REPTD_SYSFUNC_ERR\00", align 1
@.str.25 = private unnamed_addr constant [19 x i8] c"KIN_STEP_LT_STPTOL\00", align 1
@.str.26 = private unnamed_addr constant [23 x i8] c"KIN_LINESEARCH_NONCONV\00", align 1
@.str.27 = private unnamed_addr constant [22 x i8] c"KIN_LINESEARCH_BCFAIL\00", align 1
@.str.28 = private unnamed_addr constant [20 x i8] c"KIN_MAXITER_REACHED\00", align 1
@.str.29 = private unnamed_addr constant [23 x i8] c"KIN_MXNEWT_5X_EXCEEDED\00", align 1
@.str.30 = private unnamed_addr constant [24 x i8] c"KIN_LINSOLV_NO_RECOVERY\00", align 1
@.str.31 = private unnamed_addr constant [23 x i8] c"KIN_PRECONDSET_FAILURE\00", align 1
@.str.32 = private unnamed_addr constant [25 x i8] c"KIN_PRECONDSOLVE_FAILURE\00", align 1
@.str.33 = private unnamed_addr constant [8 x i8] c"%s (%s)\00", align 1

; Function Attrs: nounwind uwtable
define void @KINPrintInfo(ptr noundef %0, i32 noundef %1, ptr noundef %2, ptr noundef %3, ptr noundef %4, ...) #0 {
  %6 = alloca ptr, align 8
  %7 = alloca i32, align 4
  %8 = alloca ptr, align 8
  %9 = alloca ptr, align 8
  %10 = alloca ptr, align 8
  %11 = alloca [1 x %struct.__va_list_tag], align 16
  %12 = alloca [256 x i8], align 16
  %13 = alloca [40 x i8], align 16
  %14 = alloca [30 x i8], align 16
  %15 = alloca i32, align 4
  store ptr %0, ptr %6, align 8, !tbaa !8
  store i32 %1, ptr %7, align 4, !tbaa !68
  store ptr %2, ptr %8, align 8, !tbaa !85
  store ptr %3, ptr %9, align 8, !tbaa !85
  store ptr %4, ptr %10, align 8, !tbaa !85
  call void @llvm.lifetime.start.p0(i64 24, ptr %11) #10
  call void @llvm.lifetime.start.p0(i64 256, ptr %12) #10
  call void @llvm.lifetime.start.p0(i64 40, ptr %13) #10
  call void @llvm.lifetime.start.p0(i64 30, ptr %14) #10
  call void @llvm.lifetime.start.p0(i64 4, ptr %15) #10
  %16 = getelementptr inbounds [1 x %struct.__va_list_tag], ptr %11, i64 0, i64 0
  call void @llvm.va_start.p0(ptr %16)
  %17 = load i32, ptr %7, align 4, !tbaa !68
  %18 = icmp eq i32 %17, 1
  br i1 %18, label %19, label %79

19:                                               ; preds = %5
  %20 = getelementptr inbounds [1 x %struct.__va_list_tag], ptr %11, i64 0, i64 0
  %21 = getelementptr inbounds nuw %struct.__va_list_tag, ptr %20, i32 0, i32 0
  %22 = load i32, ptr %21, align 16
  %23 = icmp ule i32 %22, 40
  br i1 %23, label %24, label %29

24:                                               ; preds = %19
  %25 = getelementptr inbounds nuw %struct.__va_list_tag, ptr %20, i32 0, i32 3
  %26 = load ptr, ptr %25, align 16
  %27 = getelementptr i8, ptr %26, i32 %22
  %28 = add i32 %22, 8
  store i32 %28, ptr %21, align 16
  br label %33

29:                                               ; preds = %19
  %30 = getelementptr inbounds nuw %struct.__va_list_tag, ptr %20, i32 0, i32 2
  %31 = load ptr, ptr %30, align 8
  %32 = getelementptr i8, ptr %31, i32 8
  store ptr %32, ptr %30, align 8
  br label %33

33:                                               ; preds = %29, %24
  %34 = phi ptr [ %27, %24 ], [ %31, %29 ]
  %35 = load i32, ptr %34, align 4, !tbaa !68
  store i32 %35, ptr %15, align 4, !tbaa !68
  %36 = load i32, ptr %15, align 4, !tbaa !68
  switch i32 %36, label %70 [
    i32 0, label %37
    i32 -13, label %40
    i32 -15, label %43
    i32 2, label %46
    i32 -5, label %49
    i32 -8, label %52
    i32 -6, label %55
    i32 -7, label %58
    i32 -9, label %61
    i32 -11, label %64
    i32 -12, label %67
  ]

37:                                               ; preds = %33
  %38 = getelementptr inbounds [30 x i8], ptr %14, i64 0, i64 0
  %39 = call i32 (ptr, ptr, ...) @sprintf(ptr noundef %38, ptr noundef @.str.22) #10
  br label %70

40:                                               ; preds = %33
  %41 = getelementptr inbounds [30 x i8], ptr %14, i64 0, i64 0
  %42 = call i32 (ptr, ptr, ...) @sprintf(ptr noundef %41, ptr noundef @.str.23) #10
  br label %70

43:                                               ; preds = %33
  %44 = getelementptr inbounds [30 x i8], ptr %14, i64 0, i64 0
  %45 = call i32 (ptr, ptr, ...) @sprintf(ptr noundef %44, ptr noundef @.str.24) #10
  br label %70

46:                                               ; preds = %33
  %47 = getelementptr inbounds [30 x i8], ptr %14, i64 0, i64 0
  %48 = call i32 (ptr, ptr, ...) @sprintf(ptr noundef %47, ptr noundef @.str.25) #10
  br label %70

49:                                               ; preds = %33
  %50 = getelementptr inbounds [30 x i8], ptr %14, i64 0, i64 0
  %51 = call i32 (ptr, ptr, ...) @sprintf(ptr noundef %50, ptr noundef @.str.26) #10
  br label %70

52:                                               ; preds = %33
  %53 = getelementptr inbounds [30 x i8], ptr %14, i64 0, i64 0
  %54 = call i32 (ptr, ptr, ...) @sprintf(ptr noundef %53, ptr noundef @.str.27) #10
  br label %70

55:                                               ; preds = %33
  %56 = getelementptr inbounds [30 x i8], ptr %14, i64 0, i64 0
  %57 = call i32 (ptr, ptr, ...) @sprintf(ptr noundef %56, ptr noundef @.str.28) #10
  br label %70

58:                                               ; preds = %33
  %59 = getelementptr inbounds [30 x i8], ptr %14, i64 0, i64 0
  %60 = call i32 (ptr, ptr, ...) @sprintf(ptr noundef %59, ptr noundef @.str.29) #10
  br label %70

61:                                               ; preds = %33
  %62 = getelementptr inbounds [30 x i8], ptr %14, i64 0, i64 0
  %63 = call i32 (ptr, ptr, ...) @sprintf(ptr noundef %62, ptr noundef @.str.30) #10
  br label %70

64:                                               ; preds = %33
  %65 = getelementptr inbounds [30 x i8], ptr %14, i64 0, i64 0
  %66 = call i32 (ptr, ptr, ...) @sprintf(ptr noundef %65, ptr noundef @.str.31) #10
  br label %70

67:                                               ; preds = %33
  %68 = getelementptr inbounds [30 x i8], ptr %14, i64 0, i64 0
  %69 = call i32 (ptr, ptr, ...) @sprintf(ptr noundef %68, ptr noundef @.str.32) #10
  br label %70

70:                                               ; preds = %33, %67, %64, %61, %58, %55, %52, %49, %46, %43, %40, %37
  %71 = getelementptr inbounds [40 x i8], ptr %13, i64 0, i64 0
  %72 = load ptr, ptr %10, align 8, !tbaa !85
  %73 = load i32, ptr %15, align 4, !tbaa !68
  %74 = call i32 (ptr, ptr, ...) @sprintf(ptr noundef %71, ptr noundef %72, i32 noundef %73) #10
  %75 = getelementptr inbounds [256 x i8], ptr %12, i64 0, i64 0
  %76 = getelementptr inbounds [40 x i8], ptr %13, i64 0, i64 0
  %77 = getelementptr inbounds [30 x i8], ptr %14, i64 0, i64 0
  %78 = call i32 (ptr, ptr, ...) @sprintf(ptr noundef %75, ptr noundef @.str.33, ptr noundef %76, ptr noundef %77) #10
  br label %84

79:                                               ; preds = %5
  %80 = getelementptr inbounds [256 x i8], ptr %12, i64 0, i64 0
  %81 = load ptr, ptr %10, align 8, !tbaa !85
  %82 = getelementptr inbounds [1 x %struct.__va_list_tag], ptr %11, i64 0, i64 0
  %83 = call i32 @vsnprintf(ptr noundef %80, i64 noundef 256, ptr noundef %81, ptr noundef %82) #10
  br label %84

84:                                               ; preds = %79, %70
  %85 = getelementptr inbounds [1 x %struct.__va_list_tag], ptr %11, i64 0, i64 0
  call void @llvm.va_end.p0(ptr %85)
  call void @llvm.lifetime.end.p0(i64 4, ptr %15) #10
  call void @llvm.lifetime.end.p0(i64 30, ptr %14) #10
  call void @llvm.lifetime.end.p0(i64 40, ptr %13) #10
  call void @llvm.lifetime.end.p0(i64 256, ptr %12) #10
  call void @llvm.lifetime.end.p0(i64 24, ptr %11) #10
  ret void
}